target datalayout = "e-m:e-p270:32:32-p271:32:32-p272:64:64-i64:64-i128:128-f80:128-n8:16:32:64-S128"
target triple = "x86_64-pc-linux-gnu"

%struct.evp_pkey_st = type { i32, i32, ptr, ptr, ptr, %union.legacy_pkey_st, %union.legacy_pkey_st, %struct.CRYPTO_REF_COUNT, ptr, ptr, i32, i8, %struct.crypto_ex_data_st, ptr, ptr, i64, ptr, i64, %struct.anon }
%union.legacy_pkey_st = type { ptr }
%struct.CRYPTO_REF_COUNT = type { i32 }
%struct.crypto_ex_data_st = type { ptr, ptr }
%struct.anon = type { i32, i32, i32 }
%struct.evp_pkey_asn1_method_st = type { i32, i32, i64, ptr, ptr, ptr, ptr, ptr, ptr, ptr, ptr, ptr, ptr, ptr, ptr, ptr, ptr, ptr, ptr, ptr, ptr, ptr, ptr, ptr, ptr, ptr, ptr, ptr, ptr, ptr, ptr, ptr, ptr, ptr, ptr, ptr, ptr, ptr, ptr, ptr, ptr }

@.str = private unnamed_addr constant [30 x i8] c"../openssl/crypto/evp/p_lib.c\00", align 1
@__func__.pkey_set_type = private unnamed_addr constant [14 x i8] c"pkey_set_type\00", align 1

; Function Attrs: nounwind uwtable
define void @evp_pkey_free_legacy(ptr noundef %0) #0 {
  %2 = alloca ptr, align 8
  %3 = alloca ptr, align 8
  %4 = alloca ptr, align 8
  store ptr %0, ptr %2, align 8, !tbaa !3
  call void @llvm.lifetime.start.p0(i64 8, ptr %3) #8
  %5 = load ptr, ptr %2, align 8, !tbaa !3
  %6 = getelementptr inbounds nuw %struct.evp_pkey_st, ptr %5, i32 0, i32 2
  %7 = load ptr, ptr %6, align 8, !tbaa !23
  store ptr %7, ptr %3, align 8, !tbaa !70
  call void @llvm.lifetime.start.p0(i64 8, ptr %4) #8
  store ptr null, ptr %4, align 8, !tbaa !69
  %8 = load ptr, ptr %3, align 8, !tbaa !70
  %9 = icmp eq ptr %8, null
  br i1 %9, label %10, label %20

10:                                               ; preds = %1
  %11 = load ptr, ptr %2, align 8, !tbaa !3
  %12 = getelementptr inbounds nuw %struct.evp_pkey_st, ptr %11, i32 0, i32 6
  %13 = load ptr, ptr %12, align 8, !tbaa !38
  %14 = icmp ne ptr %13, null
  br i1 %14, label %15, label %20

15:                                               ; preds = %10
  %16 = load ptr, ptr %2, align 8, !tbaa !3
  %17 = getelementptr inbounds nuw %struct.evp_pkey_st, ptr %16, i32 0, i32 0
  %18 = load i32, ptr %17, align 8, !tbaa !29
  %19 = call ptr @EVP_PKEY_asn1_find(ptr noundef %4, i32 noundef %18)
  store ptr %19, ptr %3, align 8, !tbaa !70
  br label %20

20:                                               ; preds = %15, %10, %1
  %21 = load ptr, ptr %3, align 8, !tbaa !70
  %22 = icmp ne ptr %21, null
  br i1 %22, label %23, label %48

23:                                               ; preds = %20
  %24 = load ptr, ptr %2, align 8, !tbaa !3
  %25 = getelementptr inbounds nuw %struct.evp_pkey_st, ptr %24, i32 0, i32 6
  %26 = load ptr, ptr %25, align 8, !tbaa !38
  %27 = icmp ne ptr %26, null
  br i1 %27, label %28, label %35

28:                                               ; preds = %23
  %29 = load ptr, ptr %2, align 8, !tbaa !3
  %30 = getelementptr inbounds nuw %struct.evp_pkey_st, ptr %29, i32 0, i32 5
  %31 = load ptr, ptr %2, align 8, !tbaa !3
  %32 = getelementptr inbounds nuw %struct.evp_pkey_st, ptr %31, i32 0, i32 6
  call void @llvm.memcpy.p0.p0.i64(ptr align 8 %30, ptr align 8 %32, i64 8, i1 false), !tbaa.struct !138
  %33 = load ptr, ptr %2, align 8, !tbaa !3
  %34 = getelementptr inbounds nuw %struct.evp_pkey_st, ptr %33, i32 0, i32 6
  store ptr null, ptr %34, align 8, !tbaa !38
  br label %35

35:                                               ; preds = %28, %23
  %36 = load ptr, ptr %3, align 8, !tbaa !70
  %37 = getelementptr inbounds nuw %struct.evp_pkey_asn1_method_st, ptr %36, i32 0, i32 22
  %38 = load ptr, ptr %37, align 8, !tbaa !139
  %39 = icmp ne ptr %38, null
  br i1 %39, label %40, label %45

40:                                               ; preds = %35
  %41 = load ptr, ptr %3, align 8, !tbaa !70
  %42 = getelementptr inbounds nuw %struct.evp_pkey_asn1_method_st, ptr %41, i32 0, i32 22
  %43 = load ptr, ptr %42, align 8, !tbaa !139
  %44 = load ptr, ptr %2, align 8, !tbaa !3
  call void %43(ptr noundef %44)
  br label %45

45:                                               ; preds = %40, %35
  %46 = load ptr, ptr %2, align 8, !tbaa !3
  %47 = getelementptr inbounds nuw %struct.evp_pkey_st, ptr %46, i32 0, i32 5
  store ptr null, ptr %47, align 8, !tbaa !38
  br label %48

48:                                               ; preds = %45, %20
  %49 = load ptr, ptr %4, align 8, !tbaa !69
  %50 = call i32 @ENGINE_finish(ptr noundef %49)
  %51 = load ptr, ptr %2, align 8, !tbaa !3
  %52 = getelementptr inbounds nuw %struct.evp_pkey_st, ptr %51, i32 0, i32 3
  %53 = load ptr, ptr %52, align 8, !tbaa !92
  %54 = call i32 @ENGINE_finish(ptr noundef %53)
  %55 = load ptr, ptr %2, align 8, !tbaa !3
  %56 = getelementptr inbounds nuw %struct.evp_pkey_st, ptr %55, i32 0, i32 3
  store ptr null, ptr %56, align 8, !tbaa !92
  %57 = load ptr, ptr %2, align 8, !tbaa !3
  %58 = getelementptr inbounds nuw %struct.evp_pkey_st, ptr %57, i32 0, i32 4
  %59 = load ptr, ptr %58, align 8, !tbaa !93
  %60 = call i32 @ENGINE_finish(ptr noundef %59)
  %61 = load ptr, ptr %2, align 8, !tbaa !3
  %62 = getelementptr inbounds nuw %struct.evp_pkey_st, ptr %61, i32 0, i32 4
  store ptr null, ptr %62, align 8, !tbaa !93
  call void @llvm.lifetime.end.p0(i64 8, ptr %4) #8
  call void @llvm.lifetime.end.p0(i64 8, ptr %3) #8
  ret void
}

; Function Attrs: nounwind uwtable
define internal void @evp_pkey_free_it(ptr noundef %0) #0 {
  %2 = alloca ptr, align 8
  store ptr %0, ptr %2, align 8, !tbaa !3
  %3 = load ptr, ptr %2, align 8, !tbaa !3
  %4 = call i32 @evp_keymgmt_util_clear_operation_cache(ptr noundef %3)
  %5 = load ptr, ptr %2, align 8, !tbaa !3
  call void @evp_pkey_free_legacy(ptr noundef %5)
  %6 = load ptr, ptr %2, align 8, !tbaa !3
  %7 = getelementptr inbounds nuw %struct.evp_pkey_st, ptr %6, i32 0, i32 13
  %8 = load ptr, ptr %7, align 8, !tbaa !32
  %9 = icmp ne ptr %8, null
  br i1 %9, label %10, label %24

10:                                               ; preds = %1
  %11 = load ptr, ptr %2, align 8, !tbaa !3
  %12 = getelementptr inbounds nuw %struct.evp_pkey_st, ptr %11, i32 0, i32 13
  %13 = load ptr, ptr %12, align 8, !tbaa !32
  %14 = load ptr, ptr %2, align 8, !tbaa !3
  %15 = getelementptr inbounds nuw %struct.evp_pkey_st, ptr %14, i32 0, i32 14
  %16 = load ptr, ptr %15, align 8, !tbaa !33
  call void @evp_keymgmt_freedata(ptr noundef %13, ptr noundef %16)
  %17 = load ptr, ptr %2, align 8, !tbaa !3
  %18 = getelementptr inbounds nuw %struct.evp_pkey_st, ptr %17, i32 0, i32 13
  %19 = load ptr, ptr %18, align 8, !tbaa !32
  call void @EVP_KEYMGMT_free(ptr noundef %19)
  %20 = load ptr, ptr %2, align 8, !tbaa !3
  %21 = getelementptr inbounds nuw %struct.evp_pkey_st, ptr %20, i32 0, i32 13
  store ptr null, ptr %21, align 8, !tbaa !32
  %22 = load ptr, ptr %2, align 8, !tbaa !3
  %23 = getelementptr inbounds nuw %struct.evp_pkey_st, ptr %22, i32 0, i32 14
  store ptr null, ptr %23, align 8, !tbaa !33
  br label %24

24:                                               ; preds = %10, %1
  %25 = load ptr, ptr %2, align 8, !tbaa !3
  %26 = getelementptr inbounds nuw %struct.evp_pkey_st, ptr %25, i32 0, i32 0
  store i32 0, ptr %26, align 8, !tbaa !29
  ret void
}

; Function Attrs: nounwind uwtable
define internal i32 @pkey_set_type(ptr noundef %0, ptr noundef %1, i32 noundef %2, ptr noundef %3, i32 noundef %4, ptr noundef %5) #0 {
  %7 = alloca i32, align 4
  %8 = alloca ptr, align 8
  %9 = alloca ptr, align 8
  %10 = alloca i32, align 4
  %11 = alloca ptr, align 8
  %12 = alloca i32, align 4
  %13 = alloca ptr, align 8
  %14 = alloca ptr, align 8
  %15 = alloca ptr, align 8
  %16 = alloca i32, align 4
  %17 = alloca i32, align 4
  %18 = alloca i32, align 4
  store ptr %0, ptr %8, align 8, !tbaa !3
  store ptr %1, ptr %9, align 8, !tbaa !69
  store i32 %2, ptr %10, align 4, !tbaa !8
  store ptr %3, ptr %11, align 8, !tbaa !39
  store i32 %4, ptr %12, align 4, !tbaa !8
  store ptr %5, ptr %13, align 8, !tbaa !34
  call void @llvm.lifetime.start.p0(i64 8, ptr %14) #8
  store ptr null, ptr %14, align 8, !tbaa !70
  call void @llvm.lifetime.start.p0(i64 8, ptr %15) #8
  %19 = load ptr, ptr %9, align 8, !tbaa !69
  %20 = icmp eq ptr %19, null
  br i1 %20, label %21, label %22

21:                                               ; preds = %6
  br label %23

22:                                               ; preds = %6
  br label %23

23:                                               ; preds = %22, %21
  %24 = phi ptr [ %9, %21 ], [ null, %22 ]
  store ptr %24, ptr %15, align 8, !tbaa !89
  %25 = load i32, ptr %10, align 4, !tbaa !8
  %26 = icmp eq i32 %25, 0
  br i1 %26, label %30, label %27

27:                                               ; preds = %23
  %28 = load ptr, ptr %13, align 8, !tbaa !34
  %29 = icmp eq ptr %28, null
  br label %30

30:                                               ; preds = %27, %23
  %31 = phi i1 [ true, %23 ], [ %29, %27 ]
  %32 = zext i1 %31 to i32
  %33 = icmp ne i32 %32, 0
  %34 = xor i1 %33, true
  %35 = xor i1 %34, true
  %36 = zext i1 %35 to i32
  %37 = sext i32 %36 to i64
  %38 = call i64 @llvm.expect.i64(i64 %37, i64 1)
  %39 = icmp ne i64 %38, 0
  br i1 %39, label %40, label %56

40:                                               ; preds = %30
  %41 = load ptr, ptr %9, align 8, !tbaa !69
  %42 = icmp eq ptr %41, null
  br i1 %42, label %46, label %43

43:                                               ; preds = %40
  %44 = load ptr, ptr %13, align 8, !tbaa !34
  %45 = icmp eq ptr %44, null
  br label %46

46:                                               ; preds = %43, %40
  %47 = phi i1 [ true, %40 ], [ %45, %43 ]
  %48 = zext i1 %47 to i32
  %49 = icmp ne i32 %48, 0
  %50 = xor i1 %49, true
  %51 = xor i1 %50, true
  %52 = zext i1 %51 to i32
  %53 = sext i32 %52 to i64
  %54 = call i64 @llvm.expect.i64(i64 %53, i64 1)
  %55 = icmp ne i64 %54, 0
  br i1 %55, label %57, label %56

56:                                               ; preds = %46, %30
  call void @ERR_new()
  call void @ERR_set_debug(ptr noundef @.str, i32 noundef 1552, ptr noundef @__func__.pkey_set_type)
  call void (i32, i32, ptr, ...) @ERR_set_error(i32 noundef 6, i32 noundef 786691, ptr noundef null)
  store i32 0, ptr %7, align 4
  store i32 1, ptr %16, align 4
  br label %225

57:                                               ; preds = %46
  %58 = load ptr, ptr %8, align 8, !tbaa !3
  %59 = icmp ne ptr %58, null
  br i1 %59, label %60, label %118

60:                                               ; preds = %57
  call void @llvm.lifetime.start.p0(i64 4, ptr %17) #8
  store i32 0, ptr %17, align 4, !tbaa !8
  %61 = load i32, ptr %17, align 4, !tbaa !8
  %62 = icmp ne i32 %61, 0
  br i1 %62, label %68, label %63

63:                                               ; preds = %60
  %64 = load ptr, ptr %8, align 8, !tbaa !3
  %65 = getelementptr inbounds nuw %struct.evp_pkey_st, ptr %64, i32 0, i32 5
  %66 = load ptr, ptr %65, align 8, !tbaa !38
  %67 = icmp ne ptr %66, null
  br label %68

68:                                               ; preds = %63, %60
  %69 = phi i1 [ true, %60 ], [ %67, %63 ]
  %70 = zext i1 %69 to i32
  store i32 %70, ptr %17, align 4, !tbaa !8
  %71 = load i32, ptr %17, align 4, !tbaa !8
  %72 = icmp ne i32 %71, 0
  br i1 %72, label %78, label %73

73:                                               ; preds = %68
  %74 = load ptr, ptr %8, align 8, !tbaa !3
  %75 = getelementptr inbounds nuw %struct.evp_pkey_st, ptr %74, i32 0, i32 14
  %76 = load ptr, ptr %75, align 8, !tbaa !33
  %77 = icmp ne ptr %76, null
  br label %78

78:                                               ; preds = %73, %68
  %79 = phi i1 [ true, %68 ], [ %77, %73 ]
  %80 = zext i1 %79 to i32
  store i32 %80, ptr %17, align 4, !tbaa !8
  %81 = load i32, ptr %17, align 4, !tbaa !8
  %82 = icmp ne i32 %81, 0
  br i1 %82, label %83, label %85

83:                                               ; preds = %78
  %84 = load ptr, ptr %8, align 8, !tbaa !3
  call void @evp_pkey_free_it(ptr noundef %84)
  br label %85

85:                                               ; preds = %83, %78
  %86 = load ptr, ptr %8, align 8, !tbaa !3
  %87 = getelementptr inbounds nuw %struct.evp_pkey_st, ptr %86, i32 0, i32 0
  %88 = load i32, ptr %87, align 8, !tbaa !29
  %89 = icmp ne i32 %88, 0
  br i1 %89, label %90, label %102

90:                                               ; preds = %85
  %91 = load i32, ptr %10, align 4, !tbaa !8
  %92 = load ptr, ptr %8, align 8, !tbaa !3
  %93 = getelementptr inbounds nuw %struct.evp_pkey_st, ptr %92, i32 0, i32 1
  %94 = load i32, ptr %93, align 4, !tbaa !91
  %95 = icmp eq i32 %91, %94
  br i1 %95, label %96, label %102

96:                                               ; preds = %90
  %97 = load ptr, ptr %8, align 8, !tbaa !3
  %98 = getelementptr inbounds nuw %struct.evp_pkey_st, ptr %97, i32 0, i32 2
  %99 = load ptr, ptr %98, align 8, !tbaa !23
  %100 = icmp ne ptr %99, null
  br i1 %100, label %101, label %102

101:                                              ; preds = %96
  store i32 1, ptr %7, align 4
  store i32 1, ptr %16, align 4
  br label %115

102:                                              ; preds = %96, %90, %85
  %103 = load ptr, ptr %8, align 8, !tbaa !3
  %104 = getelementptr inbounds nuw %struct.evp_pkey_st, ptr %103, i32 0, i32 3
  %105 = load ptr, ptr %104, align 8, !tbaa !92
  %106 = call i32 @ENGINE_finish(ptr noundef %105)
  %107 = load ptr, ptr %8, align 8, !tbaa !3
  %108 = getelementptr inbounds nuw %struct.evp_pkey_st, ptr %107, i32 0, i32 3
  store ptr null, ptr %108, align 8, !tbaa !92
  %109 = load ptr, ptr %8, align 8, !tbaa !3
  %110 = getelementptr inbounds nuw %struct.evp_pkey_st, ptr %109, i32 0, i32 4
  %111 = load ptr, ptr %110, align 8, !tbaa !93
  %112 = call i32 @ENGINE_finish(ptr noundef %111)
  %113 = load ptr, ptr %8, align 8, !tbaa !3
  %114 = getelementptr inbounds nuw %struct.evp_pkey_st, ptr %113, i32 0, i32 4
  store ptr null, ptr %114, align 8, !tbaa !93
  store i32 0, ptr %16, align 4
  br label %115

115:                                              ; preds = %102, %101
  call void @llvm.lifetime.end.p0(i64 4, ptr %17) #8
  %116 = load i32, ptr %16, align 4
  switch i32 %116, label %225 [
    i32 0, label %117
  ]

117:                                              ; preds = %115
  br label %118

118:                                              ; preds = %117, %57
  %119 = load ptr, ptr %11, align 8, !tbaa !39
  %120 = icmp ne ptr %119, null
  br i1 %120, label %121, label %126

121:                                              ; preds = %118
  %122 = load ptr, ptr %15, align 8, !tbaa !89
  %123 = load ptr, ptr %11, align 8, !tbaa !39
  %124 = load i32, ptr %12, align 4, !tbaa !8
  %125 = call ptr @EVP_PKEY_asn1_find_str(ptr noundef %122, ptr noundef %123, i32 noundef %124)
  store ptr %125, ptr %14, align 8, !tbaa !70
  br label %134

126:                                              ; preds = %118
  %127 = load i32, ptr %10, align 4, !tbaa !8
  %128 = icmp ne i32 %127, 0
  br i1 %128, label %129, label %133

129:                                              ; preds = %126
  %130 = load ptr, ptr %15, align 8, !tbaa !89
  %131 = load i32, ptr %10, align 4, !tbaa !8
  %132 = call ptr @EVP_PKEY_asn1_find(ptr noundef %130, i32 noundef %131)
  store ptr %132, ptr %14, align 8, !tbaa !70
  br label %133

133:                                              ; preds = %129, %126
  br label %134

134:                                              ; preds = %133, %121
  %135 = load ptr, ptr %8, align 8, !tbaa !3
  %136 = icmp eq ptr %135, null
  br i1 %136, label %137, label %143

137:                                              ; preds = %134
  %138 = load ptr, ptr %15, align 8, !tbaa !89
  %139 = icmp ne ptr %138, null
  br i1 %139, label %140, label %143

140:                                              ; preds = %137
  %141 = load ptr, ptr %9, align 8, !tbaa !69
  %142 = call i32 @ENGINE_finish(ptr noundef %141)
  br label %143

143:                                              ; preds = %140, %137, %134
  call void @llvm.lifetime.start.p0(i64 4, ptr %18) #8
  store i32 1, ptr %18, align 4, !tbaa !8
  %144 = load i32, ptr %18, align 4, !tbaa !8
  %145 = icmp ne i32 %144, 0
  br i1 %145, label %146, label %149

146:                                              ; preds = %143
  %147 = load ptr, ptr %14, align 8, !tbaa !70
  %148 = icmp eq ptr %147, null
  br label %149

149:                                              ; preds = %146, %143
  %150 = phi i1 [ false, %143 ], [ %148, %146 ]
  %151 = zext i1 %150 to i32
  store i32 %151, ptr %18, align 4, !tbaa !8
  %152 = load i32, ptr %18, align 4, !tbaa !8
  %153 = icmp ne i32 %152, 0
  br i1 %153, label %154, label %157

154:                                              ; preds = %149
  %155 = load ptr, ptr %13, align 8, !tbaa !34
  %156 = icmp eq ptr %155, null
  br label %157

157:                                              ; preds = %154, %149
  %158 = phi i1 [ false, %149 ], [ %156, %154 ]
  %159 = zext i1 %158 to i32
  store i32 %159, ptr %18, align 4, !tbaa !8
  %160 = load i32, ptr %18, align 4, !tbaa !8
  %161 = icmp ne i32 %160, 0
  br i1 %161, label %162, label %163

162:                                              ; preds = %157
  call void @ERR_new()
  call void @ERR_set_debug(ptr noundef @.str, i32 noundef 1603, ptr noundef @__func__.pkey_set_type)
  call void (i32, i32, ptr, ...) @ERR_set_error(i32 noundef 6, i32 noundef 156, ptr noundef null)
  store i32 0, ptr %7, align 4
  store i32 1, ptr %16, align 4
  br label %164

163:                                              ; preds = %157
  store i32 0, ptr %16, align 4
  br label %164

164:                                              ; preds = %163, %162
  call void @llvm.lifetime.end.p0(i64 4, ptr %18) #8
  %165 = load i32, ptr %16, align 4
  switch i32 %165, label %225 [
    i32 0, label %166
  ]

166:                                              ; preds = %164
  %167 = load ptr, ptr %8, align 8, !tbaa !3
  %168 = icmp ne ptr %167, null
  br i1 %168, label %169, label %224

169:                                              ; preds = %166
  %170 = load ptr, ptr %13, align 8, !tbaa !34
  %171 = icmp ne ptr %170, null
  br i1 %171, label %172, label %177

172:                                              ; preds = %169
  %173 = load ptr, ptr %13, align 8, !tbaa !34
  %174 = call i32 @EVP_KEYMGMT_up_ref(ptr noundef %173)
  %175 = icmp ne i32 %174, 0
  br i1 %175, label %177, label %176

176:                                              ; preds = %172
  call void @ERR_new()
  call void @ERR_set_debug(ptr noundef @.str, i32 noundef 1609, ptr noundef @__func__.pkey_set_type)
  call void (i32, i32, ptr, ...) @ERR_set_error(i32 noundef 6, i32 noundef 786691, ptr noundef null)
  store i32 0, ptr %7, align 4
  store i32 1, ptr %16, align 4
  br label %225

177:                                              ; preds = %172, %169
  %178 = load ptr, ptr %13, align 8, !tbaa !34
  %179 = load ptr, ptr %8, align 8, !tbaa !3
  %180 = getelementptr inbounds nuw %struct.evp_pkey_st, ptr %179, i32 0, i32 13
  store ptr %178, ptr %180, align 8, !tbaa !32
  %181 = load i32, ptr %10, align 4, !tbaa !8
  %182 = load ptr, ptr %8, align 8, !tbaa !3
  %183 = getelementptr inbounds nuw %struct.evp_pkey_st, ptr %182, i32 0, i32 1
  store i32 %181, ptr %183, align 4, !tbaa !91
  %184 = load i32, ptr %10, align 4, !tbaa !8
  %185 = load ptr, ptr %8, align 8, !tbaa !3
  %186 = getelementptr inbounds nuw %struct.evp_pkey_st, ptr %185, i32 0, i32 0
  store i32 %184, ptr %186, align 8, !tbaa !29
  %187 = load ptr, ptr %13, align 8, !tbaa !34
  %188 = icmp eq ptr %187, null
  br i1 %188, label %189, label %193

189:                                              ; preds = %177
  %190 = load ptr, ptr %14, align 8, !tbaa !70
  %191 = load ptr, ptr %8, align 8, !tbaa !3
  %192 = getelementptr inbounds nuw %struct.evp_pkey_st, ptr %191, i32 0, i32 2
  store ptr %190, ptr %192, align 8, !tbaa !23
  br label %193

193:                                              ; preds = %189, %177
  %194 = load ptr, ptr %14, align 8, !tbaa !70
  %195 = icmp ne ptr %194, null
  br i1 %195, label %196, label %206

196:                                              ; preds = %193
  %197 = load i32, ptr %10, align 4, !tbaa !8
  %198 = icmp eq i32 %197, 0
  br i1 %198, label %199, label %205

199:                                              ; preds = %196
  %200 = load ptr, ptr %14, align 8, !tbaa !70
  %201 = getelementptr inbounds nuw %struct.evp_pkey_asn1_method_st, ptr %200, i32 0, i32 0
  %202 = load i32, ptr %201, align 8, !tbaa !94
  %203 = load ptr, ptr %8, align 8, !tbaa !3
  %204 = getelementptr inbounds nuw %struct.evp_pkey_st, ptr %203, i32 0, i32 0
  store i32 %202, ptr %204, align 8, !tbaa !29
  br label %205

205:                                              ; preds = %199, %196
  br label %209

206:                                              ; preds = %193
  %207 = load ptr, ptr %8, align 8, !tbaa !3
  %208 = getelementptr inbounds nuw %struct.evp_pkey_st, ptr %207, i32 0, i32 0
  store i32 -1, ptr %208, align 8, !tbaa !29
  br label %209

209:                                              ; preds = %206, %205
  %210 = load ptr, ptr %15, align 8, !tbaa !89
  %211 = icmp eq ptr %210, null
  br i1 %211, label %212, label %220

212:                                              ; preds = %209
  %213 = load ptr, ptr %9, align 8, !tbaa !69
  %214 = icmp ne ptr %213, null
  br i1 %214, label %215, label %220

215:                                              ; preds = %212
  %216 = load ptr, ptr %9, align 8, !tbaa !69
  %217 = call i32 @ENGINE_init(ptr noundef %216)
  %218 = icmp ne i32 %217, 0
  br i1 %218, label %220, label %219

219:                                              ; preds = %215
  call void @ERR_new()
  call void @ERR_set_debug(ptr noundef @.str, i32 noundef 1643, ptr noundef @__func__.pkey_set_type)
  call void (i32, i32, ptr, ...) @ERR_set_error(i32 noundef 6, i32 noundef 134, ptr noundef null)
  store i32 0, ptr %7, align 4
  store i32 1, ptr %16, align 4
  br label %225

220:                                              ; preds = %215, %212, %209
  %221 = load ptr, ptr %9, align 8, !tbaa !69
  %222 = load ptr, ptr %8, align 8, !tbaa !3
  %223 = getelementptr inbounds nuw %struct.evp_pkey_st, ptr %222, i32 0, i32 3
  store ptr %221, ptr %223, align 8, !tbaa !92
  br label %224

224:                                              ; preds = %220, %166
  store i32 1, ptr %7, align 4
  store i32 1, ptr %16, align 4
  br label %225

225:                                              ; preds = %224, %219, %176, %164, %115, %56
  call void @llvm.lifetime.end.p0(i64 8, ptr %15) #8
  call void @llvm.lifetime.end.p0(i64 8, ptr %14) #8
  %226 = load i32, ptr %7, align 4
  ret i32 %226
}

; Function Attrs: nounwind uwtable
define internal void @find_ameth(ptr noundef %0, ptr noundef %1) #0 {
  %3 = alloca ptr, align 8
  %4 = alloca ptr, align 8
  %5 = alloca ptr, align 8
  store ptr %0, ptr %3, align 8, !tbaa !39
  store ptr %1, ptr %4, align 8, !tbaa !31
  call void @llvm.lifetime.start.p0(i64 8, ptr %5) #8
  %6 = load ptr, ptr %4, align 8, !tbaa !31
  store ptr %6, ptr %5, align 8, !tbaa !135
  %7 = call i32 @ERR_set_mark()
  %8 = load ptr, ptr %3, align 8, !tbaa !39
  %9 = load ptr, ptr %3, align 8, !tbaa !39
  %10 = call i64 @strlen(ptr noundef %9) #9
  %11 = trunc i64 %10 to i32
  %12 = call i32 @pkey_set_type(ptr noundef null, ptr noundef null, i32 noundef 0, ptr noundef %8, i32 noundef %11, ptr noundef null)
  %13 = icmp ne i32 %12, 0
  br i1 %13, label %14, label %34

14:                                               ; preds = %2
  %15 = load ptr, ptr %5, align 8, !tbaa !135
  %16 = getelementptr inbounds ptr, ptr %15, i64 0
  %17 = load ptr, ptr %16, align 8, !tbaa !39
  %18 = icmp eq ptr %17, null
  br i1 %18, label %19, label %23

19:                                               ; preds = %14
  %20 = load ptr, ptr %3, align 8, !tbaa !39
  %21 = load ptr, ptr %5, align 8, !tbaa !135
  %22 = getelementptr inbounds ptr, ptr %21, i64 0
  store ptr %20, ptr %22, align 8, !tbaa !39
  br label %33

23:                                               ; preds = %14
  %24 = load ptr, ptr %5, align 8, !tbaa !135
  %25 = getelementptr inbounds ptr, ptr %24, i64 1
  %26 = load ptr, ptr %25, align 8, !tbaa !39
  %27 = icmp eq ptr %26, null
  br i1 %27, label %28, label %32

28:                                               ; preds = %23
  %29 = load ptr, ptr %3, align 8, !tbaa !39
  %30 = load ptr, ptr %5, align 8, !tbaa !135
  %31 = getelementptr inbounds ptr, ptr %30, i64 1
  store ptr %29, ptr %31, align 8, !tbaa !39
  br label %32

32:                                               ; preds = %28, %23
  br label %33

33:                                               ; preds = %32, %19
  br label %34

34:                                               ; preds = %33, %2
  %35 = call i32 @ERR_pop_to_mark()
  call void @llvm.lifetime.end.p0(i64 8, ptr %5) #8
  ret void
}