; Function Attrs: nounwind uwtable
define internal void @find_ameth(ptr noundef %0, ptr noundef captures(none) %1) #0 {
  %3 = alloca ptr, align 8
  %4 = tail call i32 @ERR_set_mark() #12
  %5 = tail call i64 @strlen(ptr noundef nonnull dereferenceable(1) %0) #13
  %6 = trunc i64 %5 to i32
  call void @llvm.lifetime.start.p0(i64 8, ptr nonnull %3)
  store ptr null, ptr %3, align 8, !tbaa !61
  %7 = call ptr @EVP_PKEY_asn1_find_str(ptr noundef nonnull %3, ptr noundef nonnull %0, i32 noundef %6) #12
  %8 = load ptr, ptr %3, align 8, !tbaa !61
  %9 = call i32 @ENGINE_finish(ptr noundef %8) #12
  %10 = icmp eq ptr %7, null
  br i1 %10, label %pkey_set_type.exit.thread, label %11

pkey_set_type.exit.thread:                        ; preds = %2
  call void @ERR_new() #12
  call void @ERR_set_debug(ptr noundef nonnull @.str, i32 noundef 1603, ptr noundef nonnull @__func__.pkey_set_type) #12
  call void (i32, i32, ptr, ...) @ERR_set_error(i32 noundef 6, i32 noundef 156, ptr noundef null) #12
  call void @llvm.lifetime.end.p0(i64 8, ptr nonnull %3)
  br label %20

11:                                               ; preds = %2
  call void @llvm.lifetime.end.p0(i64 8, ptr nonnull %3)
  %12 = load ptr, ptr %1, align 8, !tbaa !47
  %13 = icmp eq ptr %12, null
  br i1 %13, label %14, label %15

14:                                               ; preds = %11
  store ptr %0, ptr %1, align 8, !tbaa !47
  br label %20

15:                                               ; preds = %11
  %16 = getelementptr inbounds nuw i8, ptr %1, i64 8
  %17 = load ptr, ptr %16, align 8, !tbaa !47
  %18 = icmp eq ptr %17, null
  br i1 %18, label %19, label %20

19:                                               ; preds = %15
  store ptr %0, ptr %16, align 8, !tbaa !47
  br label %20

20:                                               ; preds = %pkey_set_type.exit.thread, %14, %19, %15
  %21 = call i32 @ERR_pop_to_mark() #12
  ret void
}